Certificate:
    Data:
        Version: 1 (0x0)
        Serial Number: 1 (0x1)
        Signature Algorithm: md5WithRSAEncryption
        Issuer: C=US, ST=Some-State, O=Dummy IO::Socket::SSL Certificate Authority, CN=Dummy IO::Socket::SSL Certificate Authority
        Validity
            Not Before: Jul 20 16:06:19 2002 GMT
            Not After : Dec  5 16:06:19 2029 GMT
        Subject: C=US, ST=Some-State, O=IO::Socket::SSL Dummy Certificate, CN=IO::Socket::SSL Dummy Certificate
        Subject Public Key Info:
            Public Key Algorithm: rsaEncryption
            RSA Public Key: (512 bit)
                Modulus (512 bit):
                    00:cd:65:60:3d:8f:55:1f:7a:9e:87:a8:72:a0:53:
                    9d:e9:31:9e:bc:f1:27:d3:ba:e9:ab:ca:28:a5:b5:
                    48:a2:24:d8:ed:01:ec:ae:69:b1:91:7b:68:e6:d1:
                    15:57:7e:b0:06:62:33:d5:88:3e:fc:dc:fb:db:8a:
                    c9:9b:bb:50:9f
                Exponent: 65537 (0x10001)
    Signature Algorithm: md5WithRSAEncryption
        0b:61:be:f8:12:9a:82:92:63:ed:57:f8:f9:dd:79:1b:46:a2:
        0c:7c:a0:80:01:88:38:0f:a1:c0:b3:2d:57:0e:ad:3c:a8:72:
        e3:d9:50:7f:11:9a:af:2a:e3:d8:66:de:b2:18:3e:cf:c5:4a:
        71:00:b0:05:49:a3:83:9a:53:f9:83:92:2f:c7:f7:d3:df:8f:
        3d:92:5c:e5:3e:5a:f8:b6:55:71:5e:c8:85:a4:0c:0f:e7:1b:
        1f:b9:c9:db:c4:9e:d8:6a:fc:33:da:10:36:de:73:34:2f:ea:
        0d:29:e1:2b:90:89:a3:a9:74:8c:57:e3:ee:50:00:b4:0c:69:
        1a:f2
-----BEGIN CERTIFICATE-----
MIICNDCCAZ0CAQEwDQYJKoZIhvcNAQEEBQAwgY4xCzAJBgNVBAYTAlVTMRMwEQYD
VQQIEwpTb21lLVN0YXRlMTQwMgYDVQQKEytEdW1teSBJTzo6U29ja2V0OjpTU0wg
Q2VydGlmaWNhdGUgQXV0aG9yaXR5MTQwMgYDVQQDEytEdW1teSBJTzo6U29ja2V0
OjpTU0wgQ2VydGlmaWNhdGUgQXV0aG9yaXR5MB4XDTAyMDcyMDE2MDYxOVoXDTI5
MTIwNTE2MDYxOVowejELMAkGA1UEBhMCVVMxEzARBgNVBAgTClNvbWUtU3RhdGUx
KjAoBgNVBAoTIUlPOjpTb2NrZXQ6OlNTTCBEdW1teSBDZXJ0aWZpY2F0ZTEqMCgG
A1UEAxMhSU86OlNvY2tldDo6U1NMIER1bW15IENlcnRpZmljYXRlMFwwDQYJKoZI
hvcNAQEBBQADSwAwSAJBAM1lYD2PVR96noeocqBTnekxnrzxJ9O66avKKKW1SKIk
2O0B7K5psZF7aObRFVd+sAZiM9WIPvzc+9uKyZu7UJ8CAwEAATANBgkqhkiG9w0B
AQQFAAOBgQALYb74EpqCkmPtV/j53XkbRqIMfKCAAYg4D6HAsy1XDq08qHLj2VB/
EZqvKuPYZt6yGD7PxUpxALAFSaODmlP5g5Ivx/fT3489klzlPlr4tlVxXsiFpAwP
5xsfucnbxJ7Yavwz2hA23nM0L+oNKeErkImjqXSMV+PuUAC0DGka8g==
-----END CERTIFICATE-----
