Certificate:
    Data:
        Version: 1 (0x0)
        Serial Number: 2 (0x2)
        Signature Algorithm: md5WithRSAEncryption
        Issuer: C=US, ST=Some-State, O=Dummy IO::Socket::SSL Certificate Authority, CN=Dummy IO::Socket::SSL Certificate Authority
        Validity
            Not Before: Jul 20 16:06:37 2002 GMT
            Not After : Dec  5 16:06:37 2029 GMT
        Subject: C=US, ST=Some-State, O=IO::Socket::SSL Dummy Server Certificate, CN=IO::Socket::SSL Dummy Server Certificate
        Subject Public Key Info:
            Public Key Algorithm: rsaEncryption
            RSA Public Key: (512 bit)
                Modulus (512 bit):
                    00:9f:27:5f:4a:8a:35:4a:7f:3f:d1:80:25:96:26:
                    0a:da:af:9a:6d:bc:23:ba:71:91:5b:40:d1:2d:2b:
                    c8:60:2a:ef:e9:54:e5:a2:64:0a:57:90:35:bf:cd:
                    b6:36:f3:25:53:68:65:2c:d8:d0:f9:b7:f3:7f:2e:
                    f8:e2:3d:e0:dd
                Exponent: 65537 (0x10001)
    Signature Algorithm: md5WithRSAEncryption
        57:a7:2d:91:cc:e9:11:16:bb:c1:cd:b5:a5:e1:26:99:8f:ee:
        8c:b0:2d:b6:54:f4:8a:8e:fd:8f:45:9a:68:d8:0e:ef:d6:a5:
        38:6a:48:d0:08:da:a8:87:3c:70:05:18:69:a1:c8:ee:94:a7:
        87:40:f5:4f:64:b4:b0:c6:d3:d2:ed:f9:cc:d1:fe:da:4d:99:
        4d:22:02:f6:0e:9b:c0:cc:42:59:50:2f:5c:fc:5b:70:f9:0b:
        ec:6e:5b:eb:d7:6f:a1:b8:67:57:b1:4f:99:bd:ad:03:9d:b5:
        f3:44:5c:36:1c:fa:33:82:87:0b:99:aa:f5:39:5c:63:23:6b:
        48:2d
-----BEGIN CERTIFICATE-----
MIICQzCCAawCAQIwDQYJKoZIhvcNAQEEBQAwgY4xCzAJBgNVBAYTAlVTMRMwEQYD
VQQIEwpTb21lLVN0YXRlMTQwMgYDVQQKEytEdW1teSBJTzo6U29ja2V0OjpTU0wg
Q2VydGlmaWNhdGUgQXV0aG9yaXR5MTQwMgYDVQQDEytEdW1teSBJTzo6U29ja2V0
OjpTU0wgQ2VydGlmaWNhdGUgQXV0aG9yaXR5MB4XDTAyMDcyMDE2MDYzN1oXDTI5
MTIwNTE2MDYzN1owgYgxCzAJBgNVBAYTAlVTMRMwEQYDVQQIEwpTb21lLVN0YXRl
MTEwLwYDVQQKEyhJTzo6U29ja2V0OjpTU0wgRHVtbXkgU2VydmVyIENlcnRpZmlj
YXRlMTEwLwYDVQQDEyhJTzo6U29ja2V0OjpTU0wgRHVtbXkgU2VydmVyIENlcnRp
ZmljYXRlMFwwDQYJKoZIhvcNAQEBBQADSwAwSAJBAJ8nX0qKNUp/P9GAJZYmCtqv
mm28I7pxkVtA0S0ryGAq7+lU5aJkCleQNb/NtjbzJVNoZSzY0Pm3838u+OI94N0C
AwEAATANBgkqhkiG9w0BAQQFAAOBgQBXpy2RzOkRFrvBzbWl4SaZj+6MsC22VPSK
jv2PRZpo2A7v1qU4akjQCNqohzxwBRhpocjulKeHQPVPZLSwxtPS7fnM0f7aTZlN
IgL2DpvAzEJZUC9c/Ftw+Qvsblvr12+huGdXsU+Zva0DnbXzRFw2HPozgocLmar1
OVxjI2tILQ==
-----END CERTIFICATE-----
