Certificate:
    Data:
        Version: 3 (0x2)
        Serial Number: 6 (0x6)
        Signature Algorithm: sha1WithRSAEncryption
        Issuer: C=US, ST=California, L=Sunnyvale, O=NOCpulse, Inc., OU=Operations, CN=NOCpulse Dev Satellite Systems CA/Email=ops@nocpulse.com
        Validity
            Not Before: Feb 15 23:16:45 2002 GMT
            Not After : Jan 25 23:16:45 2006 GMT
        Subject: C=US, ST=California, L=Sunnyvale, O=NOCpulse, Inc., OU=Operations, CN=SBclient/Email=ops@nocpulse.com
        Subject Public Key Info:
            Public Key Algorithm: rsaEncryption
            RSA Public Key: (1024 bit)
                Modulus (1024 bit):
                    00:c8:f4:69:cc:30:f2:89:8d:e9:4f:be:30:08:46:
                    19:29:7c:50:22:41:fb:e6:82:19:c5:8d:31:bd:2c:
                    f1:4d:a9:20:6f:31:2d:b4:2a:36:5b:ec:69:1d:5c:
                    79:1e:28:65:1a:05:76:ed:f4:ca:3c:2f:2f:67:5d:
                    3a:5e:3f:c5:1d:3d:bf:c3:51:1c:b7:f4:a4:b1:da:
                    ea:e2:3c:ff:9e:2b:fa:66:0b:a5:0b:f7:e3:81:29:
                    7a:90:0f:ba:7b:66:09:10:9d:94:a8:4d:70:e9:78:
                    e1:65:32:b9:a2:a5:fa:28:8c:f8:78:80:47:bf:10:
                    94:d9:17:f1:63:ce:25:ee:4d
                Exponent: 65537 (0x10001)
        X509v3 extensions:
            X509v3 Basic Constraints: 
                CA:FALSE
            Netscape Comment: 
                NOCpulse Satellite System Certificate
            X509v3 Subject Key Identifier: 
                27:D5:AD:EB:02:E5:CB:43:B6:5A:6E:32:D4:B2:E1:A8:5A:6A:A2:2C
            X509v3 Authority Key Identifier: 
                keyid:02:0E:92:D6:40:70:EE:C4:3C:FA:20:B7:BF:A3:82:B3:07:BE:93:D9
                DirName:/C=US/ST=California/L=Sunnyvale/O=NOCpulse, Inc./OU=Operations/CN=NOCpulse Dev Systems CA/Email=ops@nocpulse.com
                serial:02

            Netscape Revocation Url: 
                http://www.nocpulse.com/certs/crl.pem
            Netscape Renewal Url: 
                http://www.nocpulse.com/certs/renew.html
            Netscape CA Policy Url: 
                http://www.nocpulse.com/certs/capolicy.html
            Netscape CA Revocation Url: 
                http://www.nocpulse.com/ca-crl.pem
            Netscape Cert Type: 
                SSL Client, SSL Server
            X509v3 Key Usage: 
                Digital Signature, Key Encipherment
    Signature Algorithm: sha1WithRSAEncryption
        86:ef:4c:d0:1b:1f:26:dc:40:c6:5b:5b:51:0c:3c:82:50:86:
        ac:bb:69:a3:93:25:50:23:18:81:45:3c:fb:9d:d5:42:37:f1:
        c0:43:15:de:13:b1:a3:8e:76:25:fb:69:4c:5c:c9:fe:b9:03:
        f5:a9:bd:9f:81:52:0a:e0:80:0b:be:fe:1a:dc:da:7a:f7:e4:
        33:27:34:71:f4:20:0e:01:19:18:3d:98:2a:19:d5:99:f2:5f:
        d4:c1:27:b3:5b:50:da:a4:6b:fb:ad:5a:16:c6:28:49:60:55:
        d9:33:c6:50:9e:89:df:4b:da:39:1b:1c:5b:6a:1a:15:ed:e5:
        61:6b:7a:f9:29:80:73:fd:75:1d:c6:47:66:80:bc:c2:92:dc:
        0d:cf:5a:a3:5b:68:8d:d2:1f:9c:e5:1b:5c:7a:8c:2e:af:cc:
        ed:5d:0f:9e:55:93:d4:5e:13:b1:aa:9a:08:74:d9:fd:8c:ea:
        ef:74:76:f3:93:08:83:a8:f6:8b:80:4a:d2:06:3a:fc:25:5d:
        48:53:06:37:73:06:5c:ba:b5:dc:fd:dd:75:73:fd:6d:e1:33:
        36:60:22:ae:9a:c3:bd:68:a6:36:5a:ce:19:5e:23:6b:29:ef:
        13:3b:13:7a:91:d2:fc:7c:21:35:c8:20:20:c5:63:f3:b4:7b:
        36:fe:27:6e
-----BEGIN CERTIFICATE-----
MIIFfTCCBGWgAwIBAgIBBjANBgkqhkiG9w0BAQUFADCBsTELMAkGA1UEBhMCVVMx
EzARBgNVBAgTCkNhbGlmb3JuaWExEjAQBgNVBAcTCVN1bm55dmFsZTEXMBUGA1UE
ChMOTk9DcHVsc2UsIEluYy4xEzARBgNVBAsTCk9wZXJhdGlvbnMxKjAoBgNVBAMT
IU5PQ3B1bHNlIERldiBTYXRlbGxpdGUgU3lzdGVtcyBDQTEfMB0GCSqGSIb3DQEJ
ARYQb3BzQG5vY3B1bHNlLmNvbTAeFw0wMjAyMTUyMzE2NDVaFw0wNjAxMjUyMzE2
NDVaMIGYMQswCQYDVQQGEwJVUzETMBEGA1UECBMKQ2FsaWZvcm5pYTESMBAGA1UE
BxMJU3Vubnl2YWxlMRcwFQYDVQQKEw5OT0NwdWxzZSwgSW5jLjETMBEGA1UECxMK
T3BlcmF0aW9uczERMA8GA1UEAxMIU0JjbGllbnQxHzAdBgkqhkiG9w0BCQEWEG9w
c0Bub2NwdWxzZS5jb20wgZ8wDQYJKoZIhvcNAQEBBQADgY0AMIGJAoGBAMj0acww
8omN6U++MAhGGSl8UCJB++aCGcWNMb0s8U2pIG8xLbQqNlvsaR1ceR4oZRoFdu30
yjwvL2ddOl4/xR09v8NRHLf0pLHa6uI8/54r+mYLpQv344EpepAPuntmCRCdlKhN
cOl44WUyuaKl+iiM+HiAR78QlNkX8WPOJe5NAgMBAAGjggI5MIICNTAJBgNVHRME
AjAAMDQGCWCGSAGG+EIBDQQnFiVOT0NwdWxzZSBTYXRlbGxpdGUgU3lzdGVtIENl
cnRpZmljYXRlMB0GA1UdDgQWBBQn1a3rAuXLQ7ZabjLUsuGoWmqiLDCB1AYDVR0j
BIHMMIHJgBQCDpLWQHDuxDz6ILe/o4KzB76T2aGBraSBqjCBpzELMAkGA1UEBhMC
VVMxEzARBgNVBAgTCkNhbGlmb3JuaWExEjAQBgNVBAcTCVN1bm55dmFsZTEXMBUG
A1UEChMOTk9DcHVsc2UsIEluYy4xEzARBgNVBAsTCk9wZXJhdGlvbnMxIDAeBgNV
BAMTF05PQ3B1bHNlIERldiBTeXN0ZW1zIENBMR8wHQYJKoZIhvcNAQkBFhBvcHNA
bm9jcHVsc2UuY29tggECMDQGCWCGSAGG+EIBAwQnFiVodHRwOi8vd3d3Lm5vY3B1
bHNlLmNvbS9jZXJ0cy9jcmwucGVtMDcGCWCGSAGG+EIBBwQqFihodHRwOi8vd3d3
Lm5vY3B1bHNlLmNvbS9jZXJ0cy9yZW5ldy5odG1sMDoGCWCGSAGG+EIBCAQtFito
dHRwOi8vd3d3Lm5vY3B1bHNlLmNvbS9jZXJ0cy9jYXBvbGljeS5odG1sMDEGCWCG
SAGG+EIBBAQkFiJodHRwOi8vd3d3Lm5vY3B1bHNlLmNvbS9jYS1jcmwucGVtMBEG
CWCGSAGG+EIBAQQEAwIGwDALBgNVHQ8EBAMCBaAwDQYJKoZIhvcNAQEFBQADggEB
AIbvTNAbHybcQMZbW1EMPIJQhqy7aaOTJVAjGIFFPPud1UI38cBDFd4TsaOOdiX7
aUxcyf65A/WpvZ+BUgrggAu+/hrc2nr35DMnNHH0IA4BGRg9mCoZ1ZnyX9TBJ7Nb
UNqka/utWhbGKElgVdkzxlCeid9L2jkbHFtqGhXt5WFrevkpgHP9dR3GR2aAvMKS
3A3PWqNbaI3SH5zlG1x6jC6vzO1dD55Vk9ReE7Gqmgh02f2M6u90dvOTCIOo9ouA
StIGOvwlXUhTBjdzBly6tdz93XVz/W3hMzZgIq6aw71opjZazhleI2sp7xM7E3qR
0vx8ITXIICDFY/O0ezb+J24=
-----END CERTIFICATE-----
