Certificate:
    Data:
        Version: 3 (0x2)
        Serial Number: 6 (0x6)
        Signature Algorithm: sha1WithRSAEncryption
        Issuer: C=US, ST=California, L=Sunnyvale, O=NOCpulse, Inc., OU=Operations, CN=NOCpulse Dev Proxy Systems CA/Email=ops@nocpulse.com
        Validity
            Not Before: Feb 15 23:15:49 2002 GMT
            Not After : Jan 25 23:15:49 2006 GMT
        Subject: C=US, ST=California, L=Sunnyvale, O=NOCpulse, Inc., OU=Operations, CN=SBserver/Email=ops@nocpulse.com
        Subject Public Key Info:
            Public Key Algorithm: rsaEncryption
            RSA Public Key: (1024 bit)
                Modulus (1024 bit):
                    00:aa:22:89:1f:e4:b1:dc:b3:b5:6f:e6:77:db:21:
                    1d:77:55:36:18:39:f8:12:4a:b6:7d:f0:88:4a:7c:
                    e1:4f:a3:f5:39:68:9f:12:09:ba:51:0a:58:49:3a:
                    07:47:ab:d6:60:64:6c:54:4c:9a:00:2f:d7:02:e5:
                    7d:d3:82:92:ac:c5:ee:69:6c:38:c8:40:93:54:0c:
                    72:0a:05:2d:d2:97:cb:55:47:19:1c:ed:0a:db:c0:
                    6a:60:34:a1:c8:32:44:27:85:7e:82:e2:ed:c9:37:
                    1d:9f:b2:3f:2f:54:b6:b8:a0:82:b0:dd:f1:b3:a6:
                    58:7d:bf:f3:0f:31:f9:e3:e9
                Exponent: 65537 (0x10001)
        X509v3 extensions:
            X509v3 Basic Constraints: 
                CA:FALSE
            Netscape Comment: 
                NOCpulse Proxy System Certificate
            X509v3 Subject Key Identifier: 
                D8:B9:36:2F:25:22:84:6F:6F:23:56:FA:C8:64:D6:CF:62:B3:EE:30
            X509v3 Authority Key Identifier: 
                keyid:97:92:5F:69:C6:D7:14:AD:06:8A:5F:56:E4:B4:3F:12:7D:39:1B:B9
                DirName:/C=US/ST=California/L=Sunnyvale/O=NOCpulse, Inc./OU=Operations/CN=NOCpulse Dev Systems CA/Email=ops@nocpulse.com
                serial:01

            Netscape Revocation Url: 
                http://www.nocpulse.com/certs/crl.pem
            Netscape Renewal Url: 
                http://www.nocpulse.com/certs/renew.html
            Netscape CA Policy Url: 
                http://www.nocpulse.com/certs/capolicy.html
            Netscape CA Revocation Url: 
                http://www.nocpulse.com/certs/ca-crl.pem
            Netscape Cert Type: 
                SSL Client, SSL Server
            X509v3 Key Usage: 
                Digital Signature, Key Encipherment
    Signature Algorithm: sha1WithRSAEncryption
        87:60:33:d4:1b:fb:0c:b8:47:06:8b:71:84:03:29:fc:60:88:
        18:41:cf:24:16:69:30:fe:b7:5e:92:bf:f7:8d:7b:9d:97:d6:
        fc:a7:67:34:f5:e0:e8:0f:78:14:c4:38:66:fd:6c:d4:f1:77:
        a8:d9:1b:de:a7:33:da:db:52:46:76:36:5a:d0:a8:d4:6a:3a:
        14:99:d4:b9:8e:b7:11:31:9c:79:5a:6f:c1:3b:1d:0d:f5:3a:
        82:68:9f:4c:94:b2:a4:25:bc:88:15:44:51:1d:be:aa:85:52:
        51:5f:ed:08:11:04:ae:2e:d9:ac:85:83:5b:9f:79:cf:2b:37:
        67:12:65:3c:d8:95:20:b9:fe:0a:cc:2f:72:97:34:15:97:07:
        c4:f9:4b:fe:82:c1:af:ee:db:ed:5c:8c:3f:b0:c8:e2:3c:55:
        a3:40:d9:55:3a:a5:0a:c7:d1:38:6a:6e:cf:2f:c9:61:f1:82:
        40:fc:59:5f:2d:35:0e:64:0c:70:24:74:92:62:a7:84:ce:ef:
        2f:ea:05:77:f3:2b:d6:9f:fd:60:16:fb:39:55:13:f2:e9:18:
        e4:1d:55:4c:3c:9c:f5:fe:19:a9:b8:58:dc:5e:ef:68:f9:95:
        36:bf:d8:fd:c7:1a:ee:61:de:71:95:b3:9d:6a:54:93:90:87:
        df:e2:d7:8e
-----BEGIN CERTIFICATE-----
MIIFezCCBGOgAwIBAgIBBjANBgkqhkiG9w0BAQUFADCBrTELMAkGA1UEBhMCVVMx
EzARBgNVBAgTCkNhbGlmb3JuaWExEjAQBgNVBAcTCVN1bm55dmFsZTEXMBUGA1UE
ChMOTk9DcHVsc2UsIEluYy4xEzARBgNVBAsTCk9wZXJhdGlvbnMxJjAkBgNVBAMT
HU5PQ3B1bHNlIERldiBQcm94eSBTeXN0ZW1zIENBMR8wHQYJKoZIhvcNAQkBFhBv
cHNAbm9jcHVsc2UuY29tMB4XDTAyMDIxNTIzMTU0OVoXDTA2MDEyNTIzMTU0OVow
gZgxCzAJBgNVBAYTAlVTMRMwEQYDVQQIEwpDYWxpZm9ybmlhMRIwEAYDVQQHEwlT
dW5ueXZhbGUxFzAVBgNVBAoTDk5PQ3B1bHNlLCBJbmMuMRMwEQYDVQQLEwpPcGVy
YXRpb25zMREwDwYDVQQDEwhTQnNlcnZlcjEfMB0GCSqGSIb3DQEJARYQb3BzQG5v
Y3B1bHNlLmNvbTCBnzANBgkqhkiG9w0BAQEFAAOBjQAwgYkCgYEAqiKJH+Sx3LO1
b+Z32yEdd1U2GDn4Ekq2ffCISnzhT6P1OWifEgm6UQpYSToHR6vWYGRsVEyaAC/X
AuV904KSrMXuaWw4yECTVAxyCgUt0pfLVUcZHO0K28BqYDShyDJEJ4V+guLtyTcd
n7I/L1S2uKCCsN3xs6ZYfb/zDzH54+kCAwEAAaOCAjswggI3MAkGA1UdEwQCMAAw
MAYJYIZIAYb4QgENBCMWIU5PQ3B1bHNlIFByb3h5IFN5c3RlbSBDZXJ0aWZpY2F0
ZTAdBgNVHQ4EFgQU2Lk2LyUihG9vI1b6yGTWz2Kz7jAwgdQGA1UdIwSBzDCByYAU
l5JfacbXFK0Gil9W5LQ/En05G7mhga2kgaowgacxCzAJBgNVBAYTAlVTMRMwEQYD
VQQIEwpDYWxpZm9ybmlhMRIwEAYDVQQHEwlTdW5ueXZhbGUxFzAVBgNVBAoTDk5P
Q3B1bHNlLCBJbmMuMRMwEQYDVQQLEwpPcGVyYXRpb25zMSAwHgYDVQQDExdOT0Nw
dWxzZSBEZXYgU3lzdGVtcyBDQTEfMB0GCSqGSIb3DQEJARYQb3BzQG5vY3B1bHNl
LmNvbYIBATA0BglghkgBhvhCAQMEJxYlaHR0cDovL3d3dy5ub2NwdWxzZS5jb20v
Y2VydHMvY3JsLnBlbTA3BglghkgBhvhCAQcEKhYoaHR0cDovL3d3dy5ub2NwdWxz
ZS5jb20vY2VydHMvcmVuZXcuaHRtbDA6BglghkgBhvhCAQgELRYraHR0cDovL3d3
dy5ub2NwdWxzZS5jb20vY2VydHMvY2Fwb2xpY3kuaHRtbDA3BglghkgBhvhCAQQE
KhYoaHR0cDovL3d3dy5ub2NwdWxzZS5jb20vY2VydHMvY2EtY3JsLnBlbTARBglg
hkgBhvhCAQEEBAMCBsAwCwYDVR0PBAQDAgWgMA0GCSqGSIb3DQEBBQUAA4IBAQCH
YDPUG/sMuEcGi3GEAyn8YIgYQc8kFmkw/rdekr/3jXudl9b8p2c09eDoD3gUxDhm
/WzU8Xeo2RvepzPa21JGdjZa0KjUajoUmdS5jrcRMZx5Wm/BOx0N9TqCaJ9MlLKk
JbyIFURRHb6qhVJRX+0IEQSuLtmshYNbn3nPKzdnEmU82JUguf4KzC9ylzQVlwfE
+Uv+gsGv7tvtXIw/sMjiPFWjQNlVOqUKx9E4am7PL8lh8YJA/FlfLTUOZAxwJHSS
YqeEzu8v6gV38yvWn/1gFvs5VRPy6RjkHVVMPJz1/hmpuFjcXu9o+ZU2v9j9xxru
Yd5xlbOdalSTkIff4teO
-----END CERTIFICATE-----
